target datalayout = "e-m:e-p270:32:32-p271:32:32-p272:64:64-i64:64-i128:128-f80:128-n8:16:32:64-S128"
target triple = "x86_64-unknown-linux-gnu"

%"class.QuantLib::FdmLinearOp" = type { ptr }
%"class.std::unique_ptr" = type { %"struct.std::__uniq_ptr_data" }
%"struct.std::__uniq_ptr_data" = type { %"class.std::__uniq_ptr_impl" }
%"class.std::__uniq_ptr_impl" = type { %"class.std::tuple" }
%"class.std::tuple" = type { %"struct.std::_Tuple_impl" }
%"struct.std::_Tuple_impl" = type { %"struct.std::_Head_base.1" }
%"struct.std::_Head_base.1" = type { ptr }
%"class.boost::detail::shared_count" = type { ptr }
%"class.QuantLib::Array" = type { %"class.std::unique_ptr", i64 }
%"class.QuantLib::FdmSquareRootFwdOp" = type { %"class.QuantLib::FdmLinearOpComposite", i64, double, double, double, i32, %"class.boost::shared_ptr", %"class.QuantLib::Array" }
%"class.QuantLib::FdmLinearOpComposite" = type { %"class.QuantLib::FdmLinearOp" }
%"class.boost::shared_ptr" = type { ptr, %"class.boost::detail::shared_count" }

; Function Attrs: mustprogress uwtable
define noundef double @_ZNK8QuantLib18FdmSquareRootFwdOp5zetapEm(ptr noundef nonnull align 8 dereferenceable(80) %this, i64 noundef %i) #4 align 2 {
entry:
  %this.addr = alloca ptr, align 8
  %i.addr = alloca i64, align 8
  store ptr %this, ptr %this.addr, align 8, !tbaa !3
  store i64 %i, ptr %i.addr, align 8, !tbaa !9
  %this1 = load ptr, ptr %this.addr, align 8
  %0 = load i64, ptr %i.addr, align 8, !tbaa !9
  %call = call noundef double @_ZNK8QuantLib18FdmSquareRootFwdOp1hEm(ptr noundef nonnull align 8 dereferenceable(80) %this1, i64 noundef %0)
  %1 = load i64, ptr %i.addr, align 8, !tbaa !9
  %sub = sub i64 %1, 1
  %call2 = call noundef double @_ZNK8QuantLib18FdmSquareRootFwdOp1hEm(ptr noundef nonnull align 8 dereferenceable(80) %this1, i64 noundef %sub)
  %2 = load i64, ptr %i.addr, align 8, !tbaa !9
  %call3 = call noundef double @_ZNK8QuantLib18FdmSquareRootFwdOp1hEm(ptr noundef nonnull align 8 dereferenceable(80) %this1, i64 noundef %2)
  %add = fadd double %call2, %call3
  %mul = fmul double %call, %add
  ret double %mul
}

; Function Attrs: mustprogress uwtable
define noundef double @_ZNK8QuantLib18FdmSquareRootFwdOp1hEm(ptr noundef nonnull align 8 dereferenceable(80) %this, i64 noundef %i) #4 align 2 {
entry:
  %this.addr = alloca ptr, align 8
  %i.addr = alloca i64, align 8
  store ptr %this, ptr %this.addr, align 8, !tbaa !3
  store i64 %i, ptr %i.addr, align 8, !tbaa !9
  %this1 = load ptr, ptr %this.addr, align 8
  %0 = load i64, ptr %i.addr, align 8, !tbaa !9
  %add = add i64 %0, 1
  %call = call noundef double @_ZNK8QuantLib18FdmSquareRootFwdOp1vEm(ptr noundef nonnull align 8 dereferenceable(80) %this1, i64 noundef %add)
  %1 = load i64, ptr %i.addr, align 8, !tbaa !9
  %call2 = call noundef double @_ZNK8QuantLib18FdmSquareRootFwdOp1vEm(ptr noundef nonnull align 8 dereferenceable(80) %this1, i64 noundef %1)
  %sub = fsub double %call, %call2
  ret double %sub
}

; Function Attrs: inlinehint mustprogress nounwind uwtable
define linkonce_odr noundef i64 @_ZNK8QuantLib5Array4sizeEv(ptr noundef nonnull align 8 dereferenceable(16) %this) #5 comdat align 2 {
entry:
  %this.addr = alloca ptr, align 8
  store ptr %this, ptr %this.addr, align 8, !tbaa !3
  %this1 = load ptr, ptr %this.addr, align 8
  %n_ = getelementptr inbounds nuw %"class.QuantLib::Array", ptr %this1, i32 0, i32 1
  %0 = load i64, ptr %n_, align 8, !tbaa !48
  ret i64 %0
}

; Function Attrs: mustprogress uwtable
define noundef double @_ZNK8QuantLib18FdmSquareRootFwdOp5f1LogEv(ptr noundef nonnull align 8 dereferenceable(80) %this) #4 align 2 {
entry:
  %this.addr = alloca ptr, align 8
  %n = alloca i64, align 8
  %mu = alloca double, align 8
  %a = alloca double, align 8
  %gamma = alloca double, align 8
  %nu = alloca double, align 8
  store ptr %this, ptr %this.addr, align 8, !tbaa !3
  %this1 = load ptr, ptr %this.addr, align 8
  call void @llvm.lifetime.start.p0(i64 8, ptr %n) #3
  %v_ = getelementptr inbounds nuw %"class.QuantLib::FdmSquareRootFwdOp", ptr %this1, i32 0, i32 7
  %call = call noundef i64 @_ZNK8QuantLib5Array4sizeEv(ptr noundef nonnull align 8 dereferenceable(16) %v_)
  store i64 %call, ptr %n, align 8, !tbaa !9
  call void @llvm.lifetime.start.p0(i64 8, ptr %mu) #3
  %kappa_ = getelementptr inbounds nuw %"class.QuantLib::FdmSquareRootFwdOp", ptr %this1, i32 0, i32 2
  %0 = load double, ptr %kappa_, align 8, !tbaa !28
  %fneg = fneg double %0
  %theta_ = getelementptr inbounds nuw %"class.QuantLib::FdmSquareRootFwdOp", ptr %this1, i32 0, i32 3
  %1 = load double, ptr %theta_, align 8, !tbaa !29
  %sigma_ = getelementptr inbounds nuw %"class.QuantLib::FdmSquareRootFwdOp", ptr %this1, i32 0, i32 4
  %2 = load double, ptr %sigma_, align 8, !tbaa !30
  %sigma_2 = getelementptr inbounds nuw %"class.QuantLib::FdmSquareRootFwdOp", ptr %this1, i32 0, i32 4
  %3 = load double, ptr %sigma_2, align 8, !tbaa !30
  %mul3 = fmul double %2, %3
  %div = fdiv double %mul3, 2.000000e+00
  %neg = fneg double %div
  %4 = call double @llvm.fmuladd.f64(double %fneg, double %1, double %neg)
  %5 = load i64, ptr %n, align 8, !tbaa !9
  %call4 = call noundef double @_ZNK8QuantLib18FdmSquareRootFwdOp1vEm(ptr noundef nonnull align 8 dereferenceable(80) %this1, i64 noundef %5)
  %fneg5 = fneg double %call4
  %call6 = call double @exp(double noundef %fneg5) #3, !tbaa !57
  %kappa_7 = getelementptr inbounds nuw %"class.QuantLib::FdmSquareRootFwdOp", ptr %this1, i32 0, i32 2
  %6 = load double, ptr %kappa_7, align 8, !tbaa !28
  %7 = call double @llvm.fmuladd.f64(double %4, double %call6, double %6)
  store double %7, ptr %mu, align 8, !tbaa !7
  call void @llvm.lifetime.start.p0(i64 8, ptr %a) #3
  %8 = load i64, ptr %n, align 8, !tbaa !9
  %call8 = call noundef double @_ZNK8QuantLib18FdmSquareRootFwdOp1hEm(ptr noundef nonnull align 8 dereferenceable(80) %this1, i64 noundef %8)
  %9 = load i64, ptr %n, align 8, !tbaa !9
  %sub = sub i64 %9, 1
  %call9 = call noundef double @_ZNK8QuantLib18FdmSquareRootFwdOp1hEm(ptr noundef nonnull align 8 dereferenceable(80) %this1, i64 noundef %sub)
  %10 = call double @llvm.fmuladd.f64(double 2.000000e+00, double %call8, double %call9)
  %11 = load i64, ptr %n, align 8, !tbaa !9
  %call10 = call noundef double @_ZNK8QuantLib18FdmSquareRootFwdOp5zetapEm(ptr noundef nonnull align 8 dereferenceable(80) %this1, i64 noundef %11)
  %div11 = fdiv double %10, %call10
  store double %div11, ptr %a, align 8, !tbaa !7
  call void @llvm.lifetime.start.p0(i64 8, ptr %gamma) #3
  %sigma_12 = getelementptr inbounds nuw %"class.QuantLib::FdmSquareRootFwdOp", ptr %this1, i32 0, i32 4
  %12 = load double, ptr %sigma_12, align 8, !tbaa !30
  %sigma_13 = getelementptr inbounds nuw %"class.QuantLib::FdmSquareRootFwdOp", ptr %this1, i32 0, i32 4
  %13 = load double, ptr %sigma_13, align 8, !tbaa !30
  %mul = fmul double %12, %13
  %14 = load i64, ptr %n, align 8, !tbaa !9
  %call14 = call noundef double @_ZNK8QuantLib18FdmSquareRootFwdOp1vEm(ptr noundef nonnull align 8 dereferenceable(80) %this1, i64 noundef %14)
  %fneg15 = fneg double %call14
  %call16 = call double @exp(double noundef %fneg15) #3, !tbaa !57
  %mul17 = fmul double %mul, %call16
  %15 = load i64, ptr %n, align 8, !tbaa !9
  %call18 = call noundef double @_ZNK8QuantLib18FdmSquareRootFwdOp5zetapEm(ptr noundef nonnull align 8 dereferenceable(80) %this1, i64 noundef %15)
  %div19 = fdiv double %mul17, %call18
  %16 = load double, ptr %mu, align 8, !tbaa !7
  %17 = load i64, ptr %n, align 8, !tbaa !9
  %sub20 = sub i64 %17, 1
  %call21 = call noundef double @_ZNK8QuantLib18FdmSquareRootFwdOp1hEm(ptr noundef nonnull align 8 dereferenceable(80) %this1, i64 noundef %sub20)
  %mul22 = fmul double %16, %call21
  %18 = load i64, ptr %n, align 8, !tbaa !9
  %call23 = call noundef double @_ZNK8QuantLib18FdmSquareRootFwdOp5zetapEm(ptr noundef nonnull align 8 dereferenceable(80) %this1, i64 noundef %18)
  %div24 = fdiv double %mul22, %call23
  %add = fadd double %div19, %div24
  store double %add, ptr %gamma, align 8, !tbaa !7
  call void @llvm.lifetime.start.p0(i64 8, ptr %nu) #3
  %19 = load double, ptr %a, align 8, !tbaa !7
  %20 = load i64, ptr %n, align 8, !tbaa !9
  %add25 = add i64 %20, 1
  %call26 = call noundef double @_ZNK8QuantLib18FdmSquareRootFwdOp1vEm(ptr noundef nonnull align 8 dereferenceable(80) %this1, i64 noundef %add25)
  %fneg27 = fneg double %call26
  %call28 = call double @exp(double noundef %fneg27) #3, !tbaa !57
  %kappa_30 = getelementptr inbounds nuw %"class.QuantLib::FdmSquareRootFwdOp", ptr %this1, i32 0, i32 2
  %21 = load double, ptr %kappa_30, align 8, !tbaa !28
  %mul31 = fmul double 2.000000e+00, %21
  %theta_32 = getelementptr inbounds nuw %"class.QuantLib::FdmSquareRootFwdOp", ptr %this1, i32 0, i32 3
  %22 = load double, ptr %theta_32, align 8, !tbaa !29
  %23 = load i64, ptr %n, align 8, !tbaa !9
  %add33 = add i64 %23, 1
  %call34 = call noundef double @_ZNK8QuantLib18FdmSquareRootFwdOp1vEm(ptr noundef nonnull align 8 dereferenceable(80) %this1, i64 noundef %add33)
  %fneg35 = fneg double %call34
  %call36 = call double @exp(double noundef %fneg35) #3, !tbaa !57
  %neg38 = fneg double %22
  %24 = call double @llvm.fmuladd.f64(double %neg38, double %call36, double 1.000000e+00)
  %mul39 = fmul double %mul31, %24
  %sigma_40 = getelementptr inbounds nuw %"class.QuantLib::FdmSquareRootFwdOp", ptr %this1, i32 0, i32 4
  %25 = load double, ptr %sigma_40, align 8, !tbaa !30
  %sigma_41 = getelementptr inbounds nuw %"class.QuantLib::FdmSquareRootFwdOp", ptr %this1, i32 0, i32 4
  %26 = load double, ptr %sigma_41, align 8, !tbaa !30
  %mul42 = fmul double %25, %26
  %div43 = fdiv double %mul39, %mul42
  %27 = call double @llvm.fmuladd.f64(double %19, double %call28, double %div43)
  store double %27, ptr %nu, align 8, !tbaa !7
  %28 = load double, ptr %gamma, align 8, !tbaa !7
  %29 = load double, ptr %nu, align 8, !tbaa !7
  %div44 = fdiv double %28, %29
  %30 = load i64, ptr %n, align 8, !tbaa !9
  %add45 = add i64 %30, 1
  %call46 = call noundef double @_ZNK8QuantLib18FdmSquareRootFwdOp1vEm(ptr noundef nonnull align 8 dereferenceable(80) %this1, i64 noundef %add45)
  %fneg47 = fneg double %call46
  %call48 = call double @exp(double noundef %fneg47) #3, !tbaa !57
  %mul49 = fmul double %div44, %call48
  call void @llvm.lifetime.end.p0(i64 8, ptr %nu) #3
  call void @llvm.lifetime.end.p0(i64 8, ptr %gamma) #3
  call void @llvm.lifetime.end.p0(i64 8, ptr %a) #3
  call void @llvm.lifetime.end.p0(i64 8, ptr %mu) #3
  call void @llvm.lifetime.end.p0(i64 8, ptr %n) #3
  ret double %mul49
}