; Function Attrs: mustprogress uwtable
define noundef double @_ZNK8QuantLib18FdmSquareRootFwdOp5f1LogEv(ptr nocapture noundef nonnull readonly align 8 dereferenceable(80) %this) local_unnamed_addr #3 align 2 {
entry:
  %n_.i = getelementptr inbounds nuw i8, ptr %this, i64 72
  %0 = load i64, ptr %n_.i, align 8, !tbaa !60
  %kappa_ = getelementptr inbounds nuw i8, ptr %this, i64 16
  %1 = load double, ptr %kappa_, align 8, !tbaa !24
  %fneg = fneg double %1
  %theta_ = getelementptr inbounds nuw i8, ptr %this, i64 24
  %2 = load double, ptr %theta_, align 8, !tbaa !25
  %sigma_ = getelementptr inbounds nuw i8, ptr %this, i64 32
  %3 = load double, ptr %sigma_, align 8, !tbaa !26
  %mul3 = fmul double %3, %3
  %neg = fmul double %mul3, -5.000000e-01
  %4 = tail call double @llvm.fmuladd.f64(double %fneg, double %2, double %neg)
  %call4 = tail call noundef double @_ZNK8QuantLib18FdmSquareRootFwdOp1vEm(ptr noundef nonnull align 8 dereferenceable(80) %this, i64 noundef %0)
  %fneg5 = fneg double %call4
  %call6 = tail call double @exp(double noundef %fneg5) #25, !tbaa !80
  %5 = load double, ptr %kappa_, align 8, !tbaa !24
  %6 = tail call double @llvm.fmuladd.f64(double %4, double %call6, double %5)
  %add.i = add i64 %0, 1
  %call.i = tail call noundef double @_ZNK8QuantLib18FdmSquareRootFwdOp1vEm(ptr noundef nonnull readonly align 8 dereferenceable(80) %this, i64 noundef %add.i)
  %call2.i = tail call noundef double @_ZNK8QuantLib18FdmSquareRootFwdOp1vEm(ptr noundef nonnull readonly align 8 dereferenceable(80) %this, i64 noundef %0)
  %sub.i = fsub double %call.i, %call2.i
  %sub = add i64 %0, -1
  %call.i12 = tail call noundef double @_ZNK8QuantLib18FdmSquareRootFwdOp1vEm(ptr noundef nonnull readonly align 8 dereferenceable(80) %this, i64 noundef %0)
  %call2.i13 = tail call noundef double @_ZNK8QuantLib18FdmSquareRootFwdOp1vEm(ptr noundef nonnull readonly align 8 dereferenceable(80) %this, i64 noundef %sub)
  %sub.i14 = fsub double %call.i12, %call2.i13
  %7 = tail call double @llvm.fmuladd.f64(double %sub.i, double 2.000000e+00, double %sub.i14)
  %call.i.i = tail call noundef double @_ZNK8QuantLib18FdmSquareRootFwdOp1vEm(ptr noundef nonnull readonly align 8 dereferenceable(80) %this, i64 noundef %add.i)
  %call2.i.i = tail call noundef double @_ZNK8QuantLib18FdmSquareRootFwdOp1vEm(ptr noundef nonnull readonly align 8 dereferenceable(80) %this, i64 noundef %0)
  %sub.i.i = fsub double %call.i.i, %call2.i.i
  %call.i4.i = tail call noundef double @_ZNK8QuantLib18FdmSquareRootFwdOp1vEm(ptr noundef nonnull readonly align 8 dereferenceable(80) %this, i64 noundef %0)
  %call2.i5.i = tail call noundef double @_ZNK8QuantLib18FdmSquareRootFwdOp1vEm(ptr noundef nonnull readonly align 8 dereferenceable(80) %this, i64 noundef %sub)
  %sub.i6.i = fsub double %call.i4.i, %call2.i5.i
  %call.i8.i = tail call noundef double @_ZNK8QuantLib18FdmSquareRootFwdOp1vEm(ptr noundef nonnull readonly align 8 dereferenceable(80) %this, i64 noundef %add.i)
  %call2.i9.i = tail call noundef double @_ZNK8QuantLib18FdmSquareRootFwdOp1vEm(ptr noundef nonnull readonly align 8 dereferenceable(80) %this, i64 noundef %0)
  %sub.i10.i = fsub double %call.i8.i, %call2.i9.i
  %add.i16 = fadd double %sub.i6.i, %sub.i10.i
  %mul.i = fmul double %sub.i.i, %add.i16
  %div11 = fdiv double %7, %mul.i
  %8 = load double, ptr %sigma_, align 8, !tbaa !26
  %mul = fmul double %8, %8
  %call14 = tail call noundef double @_ZNK8QuantLib18FdmSquareRootFwdOp1vEm(ptr noundef nonnull align 8 dereferenceable(80) %this, i64 noundef %0)
  %fneg15 = fneg double %call14
  %call16 = tail call double @exp(double noundef %fneg15) #25, !tbaa !80
  %mul17 = fmul double %mul, %call16
  %call.i.i18 = tail call noundef double @_ZNK8QuantLib18FdmSquareRootFwdOp1vEm(ptr noundef nonnull readonly align 8 dereferenceable(80) %this, i64 noundef %add.i)
  %call2.i.i19 = tail call noundef double @_ZNK8QuantLib18FdmSquareRootFwdOp1vEm(ptr noundef nonnull readonly align 8 dereferenceable(80) %this, i64 noundef %0)
  %sub.i.i20 = fsub double %call.i.i18, %call2.i.i19
  %call.i4.i22 = tail call noundef double @_ZNK8QuantLib18FdmSquareRootFwdOp1vEm(ptr noundef nonnull readonly align 8 dereferenceable(80) %this, i64 noundef %0)
  %call2.i5.i23 = tail call noundef double @_ZNK8QuantLib18FdmSquareRootFwdOp1vEm(ptr noundef nonnull readonly align 8 dereferenceable(80) %this, i64 noundef %sub)
  %sub.i6.i24 = fsub double %call.i4.i22, %call2.i5.i23
  %call.i8.i25 = tail call noundef double @_ZNK8QuantLib18FdmSquareRootFwdOp1vEm(ptr noundef nonnull readonly align 8 dereferenceable(80) %this, i64 noundef %add.i)
  %call2.i9.i26 = tail call noundef double @_ZNK8QuantLib18FdmSquareRootFwdOp1vEm(ptr noundef nonnull readonly align 8 dereferenceable(80) %this, i64 noundef %0)
  %sub.i10.i27 = fsub double %call.i8.i25, %call2.i9.i26
  %add.i28 = fadd double %sub.i6.i24, %sub.i10.i27
  %mul.i29 = fmul double %sub.i.i20, %add.i28
  %div19 = fdiv double %mul17, %mul.i29
  %call.i31 = tail call noundef double @_ZNK8QuantLib18FdmSquareRootFwdOp1vEm(ptr noundef nonnull readonly align 8 dereferenceable(80) %this, i64 noundef %0)
  %call2.i32 = tail call noundef double @_ZNK8QuantLib18FdmSquareRootFwdOp1vEm(ptr noundef nonnull readonly align 8 dereferenceable(80) %this, i64 noundef %sub)
  %sub.i33 = fsub double %call.i31, %call2.i32
  %mul22 = fmul double %6, %sub.i33
  %call.i.i35 = tail call noundef double @_ZNK8QuantLib18FdmSquareRootFwdOp1vEm(ptr noundef nonnull readonly align 8 dereferenceable(80) %this, i64 noundef %add.i)
  %call2.i.i36 = tail call noundef double @_ZNK8QuantLib18FdmSquareRootFwdOp1vEm(ptr noundef nonnull readonly align 8 dereferenceable(80) %this, i64 noundef %0)
  %sub.i.i37 = fsub double %call.i.i35, %call2.i.i36
  %call.i4.i39 = tail call noundef double @_ZNK8QuantLib18FdmSquareRootFwdOp1vEm(ptr noundef nonnull readonly align 8 dereferenceable(80) %this, i64 noundef %0)
  %call2.i5.i40 = tail call noundef double @_ZNK8QuantLib18FdmSquareRootFwdOp1vEm(ptr noundef nonnull readonly align 8 dereferenceable(80) %this, i64 noundef %sub)
  %sub.i6.i41 = fsub double %call.i4.i39, %call2.i5.i40
  %call.i8.i42 = tail call noundef double @_ZNK8QuantLib18FdmSquareRootFwdOp1vEm(ptr noundef nonnull readonly align 8 dereferenceable(80) %this, i64 noundef %add.i)
  %call2.i9.i43 = tail call noundef double @_ZNK8QuantLib18FdmSquareRootFwdOp1vEm(ptr noundef nonnull readonly align 8 dereferenceable(80) %this, i64 noundef %0)
  %sub.i10.i44 = fsub double %call.i8.i42, %call2.i9.i43
  %add.i45 = fadd double %sub.i6.i41, %sub.i10.i44
  %mul.i46 = fmul double %sub.i.i37, %add.i45
  %div24 = fdiv double %mul22, %mul.i46
  %add = fadd double %div19, %div24
  %call26 = tail call noundef double @_ZNK8QuantLib18FdmSquareRootFwdOp1vEm(ptr noundef nonnull align 8 dereferenceable(80) %this, i64 noundef %add.i)
  %fneg27 = fneg double %call26
  %call28 = tail call double @exp(double noundef %fneg27) #25, !tbaa !80
  %9 = load double, ptr %kappa_, align 8, !tbaa !24
  %mul31 = fmul double %9, 2.000000e+00
  %10 = load double, ptr %theta_, align 8, !tbaa !25
  %call34 = tail call noundef double @_ZNK8QuantLib18FdmSquareRootFwdOp1vEm(ptr noundef nonnull align 8 dereferenceable(80) %this, i64 noundef %add.i)
  %fneg35 = fneg double %call34
  %call36 = tail call double @exp(double noundef %fneg35) #25, !tbaa !80
  %neg38 = fneg double %10
  %11 = tail call double @llvm.fmuladd.f64(double %neg38, double %call36, double 1.000000e+00)
  %mul39 = fmul double %mul31, %11
  %12 = load double, ptr %sigma_, align 8, !tbaa !26
  %mul42 = fmul double %12, %12
  %div43 = fdiv double %mul39, %mul42
  %13 = tail call double @llvm.fmuladd.f64(double %div11, double %call28, double %div43)
  %div44 = fdiv double %add, %13
  %call46 = tail call noundef double @_ZNK8QuantLib18FdmSquareRootFwdOp1vEm(ptr noundef nonnull align 8 dereferenceable(80) %this, i64 noundef %add.i)
  %fneg47 = fneg double %call46
  %call48 = tail call double @exp(double noundef %fneg47) #25, !tbaa !80
  %mul49 = fmul double %call48, %div44
  ret double %mul49
}